; ModuleID = 'source-C-CXX/31/1888.c'
source_filename = "source-C-CXX/31/1888.c"
target datalayout = "e-m:e-p270:32:32-p271:32:32-p272:64:64-i64:64-f80:128-n8:16:32:64-S128"
target triple = "x86_64-pc-linux-gnu"

@.str = private unnamed_addr constant [3 x i8] c"%d\00", align 1
@.str.1 = private unnamed_addr constant [5 x i8] c"%s%s\00", align 1

; Function Attrs: nounwind sspstrong uwtable
define dso_local void @main() local_unnamed_addr #0 {
  %1 = alloca i32, align 4
  %2 = alloca [2 x [100 x i8]], align 16
  %3 = alloca [1 x i8], align 1
  %4 = bitcast i32* %1 to i8*
  call void @llvm.lifetime.start.p0i8(i64 4, i8* nonnull %4) #5
  %5 = getelementptr inbounds [2 x [100 x i8]], [2 x [100 x i8]]* %2, i64 0, i64 0, i64 0
  call void @llvm.lifetime.start.p0i8(i64 200, i8* nonnull %5) #5
  %6 = getelementptr inbounds [1 x i8], [1 x i8]* %3, i64 0, i64 0
  call void @llvm.lifetime.start.p0i8(i64 1, i8* nonnull %6) #5
  %7 = call i32 (i8*, ...) @__isoc99_scanf(i8* getelementptr inbounds ([3 x i8], [3 x i8]* @.str, i64 0, i64 0), i32* nonnull %1)
  %8 = getelementptr inbounds [2 x [100 x i8]], [2 x [100 x i8]]* %2, i64 0, i64 1, i64 0
  %9 = load i32, i32* %1, align 4, !tbaa !5
  %10 = icmp slt i32 %9, 1
  br i1 %10, label %56, label %11

11:                                               ; preds = %0, %50
  %12 = phi i32 [ %53, %50 ], [ 1, %0 ]
  %13 = call i32 (i8*, ...) @__isoc99_scanf(i8* getelementptr inbounds ([5 x i8], [5 x i8]* @.str.1, i64 0, i64 0), i8* nonnull %5, i8* nonnull %8)
  %14 = call i64 @strlen(i8* noundef nonnull %5) #6
  %15 = trunc i64 %14 to i32
  %16 = call i64 @strlen(i8* noundef nonnull %8) #6
  %17 = trunc i64 %16 to i32
  %18 = add i64 %14, 4294967294
  %19 = icmp sgt i32 %17, 0
  br i1 %19, label %20, label %50

20:                                               ; preds = %11
  %21 = and i64 %16, 4294967295
  br label %22

22:                                               ; preds = %20, %47
  %23 = phi i64 [ 0, %20 ], [ %48, %47 ]
  %24 = trunc i64 %23 to i32
  %25 = xor i32 %24, -1
  %26 = add i32 %25, %15
  %27 = sext i32 %26 to i64
  %28 = getelementptr inbounds [2 x [100 x i8]], [2 x [100 x i8]]* %2, i64 0, i64 0, i64 %27
  %29 = load i8, i8* %28, align 1, !tbaa !9
  %30 = add i32 %25, %17
  %31 = sext i32 %30 to i64
  %32 = getelementptr inbounds [2 x [100 x i8]], [2 x [100 x i8]]* %2, i64 0, i64 1, i64 %31
  %33 = load i8, i8* %32, align 1, !tbaa !9
  %34 = icmp slt i8 %29, %33
  br i1 %34, label %38, label %35

35:                                               ; preds = %22
  %36 = add i8 %29, 48
  %37 = sub i8 %36, %33
  store i8 %37, i8* %28, align 1, !tbaa !9
  br label %47

38:                                               ; preds = %22
  %39 = add i8 %29, 58
  %40 = sub i8 %39, %33
  store i8 %40, i8* %28, align 1, !tbaa !9
  %41 = sub i64 %18, %23
  %42 = shl i64 %41, 32
  %43 = ashr exact i64 %42, 32
  %44 = getelementptr inbounds [2 x [100 x i8]], [2 x [100 x i8]]* %2, i64 0, i64 0, i64 %43
  %45 = load i8, i8* %44, align 1, !tbaa !9
  %46 = add i8 %45, -1
  store i8 %46, i8* %44, align 1, !tbaa !9
  br label %47

47:                                               ; preds = %35, %38
  %48 = add nuw nsw i64 %23, 1
  %49 = icmp eq i64 %48, %21
  br i1 %49, label %50, label %22, !llvm.loop !10

50:                                               ; preds = %47, %11
  %51 = call i32 @puts(i8* nonnull %5)
  %52 = call i32 (i8*, ...) bitcast (i32 (...)* @gets to i32 (i8*, ...)*)(i8* nonnull %6) #5
  %53 = add nuw nsw i32 %12, 1
  %54 = load i32, i32* %1, align 4, !tbaa !5
  %55 = icmp slt i32 %12, %54
  br i1 %55, label %11, label %56, !llvm.loop !12

56:                                               ; preds = %50, %0
  call void @llvm.lifetime.end.p0i8(i64 1, i8* nonnull %6) #5
  call void @llvm.lifetime.end.p0i8(i64 200, i8* nonnull %5) #5
  call void @llvm.lifetime.end.p0i8(i64 4, i8* nonnull %4) #5
  ret void
}

; Function Attrs: argmemonly mustprogress nofree nosync nounwind willreturn
declare void @llvm.lifetime.start.p0i8(i64 immarg, i8* nocapture) #1

; Function Attrs: nofree nounwind
declare noundef i32 @__isoc99_scanf(i8* nocapture noundef readonly, ...) local_unnamed_addr #2

; Function Attrs: argmemonly mustprogress nofree nounwind readonly willreturn
declare i64 @strlen(i8* nocapture) local_unnamed_addr #3

; Function Attrs: nofree nounwind
declare noundef i32 @puts(i8* nocapture noundef readonly) local_unnamed_addr #2

declare i32 @gets(...) local_unnamed_addr #4

; Function Attrs: argmemonly mustprogress nofree nosync nounwind willreturn
declare void @llvm.lifetime.end.p0i8(i64 immarg, i8* nocapture) #1


!llvm.module.flags = !{!0, !1, !2, !3}
!llvm.ident = !{!4}

!0 = !{i32 1, !"wchar_size", i32 4}
!1 = !{i32 7, !"PIC Level", i32 2}
!2 = !{i32 7, !"PIE Level", i32 2}
!3 = !{i32 7, !"uwtable", i32 1}
!4 = !{!"clang version 13.0.0"}
!5 = !{!6, !6, i64 0}
!6 = !{!"int", !7, i64 0}
!7 = !{!"omnipotent char", !8, i64 0}
!8 = !{!"Simple C/C++ TBAA"}
!9 = !{!7, !7, i64 0}
!10 = distinct !{!10, !11}
!11 = !{!"llvm.loop.mustprogress"}
!12 = distinct !{!12, !11}
